; Function Attrs: mustprogress nounwind uwtable
define hidden void @_ZN11ClassLoader26add_to_boot_append_entriesEP14ClassPathEntry(ptr noundef %0) local_unnamed_addr #0 align 2 {
  %.not = icmp eq ptr %0, null
  br i1 %.not, label %_ZN11MutexLockerD2Ev.exit, label %2

2:                                                ; preds = %1
  %3 = load ptr, ptr @Bootclasspath_lock, align 8
  %.not.i.i = icmp eq ptr %3, null
  br i1 %.not.i.i, label %_ZN11MutexLockerC2EP5MutexNS0_18SafepointCheckFlagE.exit, label %4

4:                                                ; preds = %2
  tail call void @_ZN5Mutex28lock_without_safepoint_checkEv(ptr noundef nonnull align 8 dereferenceable(104) %3) #20
  br label %_ZN11MutexLockerC2EP5MutexNS0_18SafepointCheckFlagE.exit

_ZN11MutexLockerC2EP5MutexNS0_18SafepointCheckFlagE.exit: ; preds = %2, %4
  %5 = load volatile ptr, ptr @_ZN11ClassLoader18_last_append_entryE, align 8
  %6 = icmp eq ptr %5, null
  br i1 %6, label %7, label %8

7:                                                ; preds = %_ZN11MutexLockerC2EP5MutexNS0_18SafepointCheckFlagE.exit
  store volatile ptr %0, ptr @_ZN11ClassLoader18_last_append_entryE, align 8
  tail call void asm sideeffect "", "~{memory},~{dirflag},~{fpsr},~{flags}"() #20, !srcloc !9
  br label %11

8:                                                ; preds = %_ZN11MutexLockerC2EP5MutexNS0_18SafepointCheckFlagE.exit
  %9 = load volatile ptr, ptr @_ZN11ClassLoader18_last_append_entryE, align 8
  %10 = getelementptr inbounds i8, ptr %9, i64 8
  tail call void asm sideeffect "", "~{memory},~{dirflag},~{fpsr},~{flags}"() #20, !srcloc !9
  store volatile ptr %0, ptr %10, align 8
  br label %11

11:                                               ; preds = %8, %7
  %_ZN11ClassLoader18_last_append_entryE.sink = phi ptr [ @_ZN11ClassLoader18_last_append_entryE, %8 ], [ @_ZN11ClassLoader24_first_append_entry_listE, %7 ]
  store volatile ptr %0, ptr %_ZN11ClassLoader18_last_append_entryE.sink, align 8
  br i1 %.not.i.i, label %_ZN11MutexLockerD2Ev.exit, label %12

12:                                               ; preds = %11
  tail call void @_ZN5Mutex6unlockEv(ptr noundef nonnull align 8 dereferenceable(104) %3) #20
  br label %_ZN11MutexLockerD2Ev.exit

_ZN11MutexLockerD2Ev.exit:                        ; preds = %12, %11, %1
  ret void
}